BL51 BANKED LINKER/LOCATER V6.22.2.0                                                    09/29/2020  12:48:49  PAGE 1


BL51 BANKED LINKER/LOCATER V6.22.2.0, INVOKED BY:
C:\KEIL_V5\C51\BIN\BL51.EXE .\Objects\STARTUP.obj, .\Objects\test1.obj TO .\Objects\test PRINT (.\Listings\test.m51) RAM
>> SIZE (256)


MEMORY MODEL: SMALL


INPUT MODULES INCLUDED:
  .\Objects\STARTUP.obj (?C_STARTUP)
  .\Objects\test1.obj (TEST1)
  C:\KEIL_V5\C51\LIB\C51S.LIB (?C_INIT)
  C:\KEIL_V5\C51\LIB\C51S.LIB (?C?IMUL)
  C:\KEIL_V5\C51\LIB\C51S.LIB (?C?UIDIV)
  C:\KEIL_V5\C51\LIB\C51S.LIB (?C?SIDIV)


LINK MAP OF MODULE:  .\Objects\test (?C_STARTUP)


            TYPE    BASE      LENGTH    RELOCATION   SEGMENT NAME
            -----------------------------------------------------

            * * * * * * *   D A T A   M E M O R Y   * * * * * * *
            REG     0000H     0008H     ABSOLUTE     "REG BANK 0"
            DATA    0008H     0017H     UNIT         ?DT?TEST1
                    001FH     0001H                  *** GAP ***
            BIT     0020H.0   0000H.4   UNIT         ?BI?TEST1
                    0020H.4   0000H.4                *** GAP ***
            DATA    0021H     001CH     UNIT         _DATA_GROUP_
            IDATA   003DH     0001H     UNIT         ?STACK

            * * * * * * *   C O D E   M E M O R Y   * * * * * * *
            CODE    0000H     0003H     ABSOLUTE     
            CODE    0003H     0003H     ABSOLUTE     
                    0006H     0005H                  *** GAP ***
            CODE    000BH     0003H     ABSOLUTE     
                    000EH     0005H                  *** GAP ***
            CODE    0013H     0003H     ABSOLUTE     
            CODE    0016H     000BH     UNIT         ?PR?SETINIT?TEST1
                    0021H     0002H                  *** GAP ***
            CODE    0023H     0003H     ABSOLUTE     
            CODE    0026H     00F5H     UNIT         ?PR?SERIALINIT?TEST1
            CODE    011BH     00D7H     UNIT         ?PR?MAIN?TEST1
            CODE    01F2H     00CBH     UNIT         ?PR?TIMER0?TEST1
            CODE    02BDH     00CAH     UNIT         ?PR?UPDATEDISPLAY?TEST1
            CODE    0387H     009DH     UNIT         ?C?LIB_CODE
            CODE    0424H     008CH     UNIT         ?C_C51STARTUP
            CODE    04B0H     0084H     UNIT         ?PR?CONTROLSPEED?TEST1
            CODE    0534H     0069H     UNIT         ?PR?CONTROLSTATE?TEST1
            CODE    059DH     0044H     UNIT         ?PR?_RUNONCE?TEST1
            CODE    05E1H     0030H     UNIT         ?C_INITSEG
            CODE    0611H     001BH     UNIT         ?PR?SETSERIAL?TEST1
            CODE    062CH     0013H     UNIT         ?PR?SETTIMER?TEST1
            CODE    063FH     0013H     UNIT         ?PR?RUNSTART?TEST1



BL51 BANKED LINKER/LOCATER V6.22.2.0                                                  09/29/2020  12:48:49  PAGE 2


OVERLAY MAP OF MODULE:   .\Objects\test (?C_STARTUP)


SEGMENT                           DATA_GROUP 
  +--> CALLED SEGMENT           START    LENGTH
-----------------------------------------------
?C_C51STARTUP                   -----    -----
  +--> ?PR?MAIN?TEST1
  +--> ?C_INITSEG

?PR?MAIN?TEST1                  0021H    0006H
  +--> ?PR?UPDATEDISPLAY?TEST1
  +--> ?PR?SETINIT?TEST1
  +--> ?PR?SETSERIAL?TEST1
  +--> ?PR?SETTIMER?TEST1
  +--> ?PR?RUNSTART?TEST1
  +--> ?PR?_RUNONCE?TEST1

?PR?UPDATEDISPLAY?TEST1         0039H    0004H

*** NEW ROOT ***************************************************

?PR?CONTROLSPEED?TEST1          002BH    0001H
  +--> ?PR?UPDATEDISPLAY?TEST1

*** NEW ROOT ***************************************************

?PR?CONTROLSTATE?TEST1          0030H    0001H
  +--> ?PR?UPDATEDISPLAY?TEST1

*** NEW ROOT ***************************************************

?PR?TIMER0?TEST1                -----    -----
  +--> ?PR?UPDATEDISPLAY?TEST1

*** NEW ROOT ***************************************************

?PR?SERIALINIT?TEST1            -----    -----
  +--> ?PR?UPDATEDISPLAY?TEST1



SYMBOL TABLE OF MODULE:  .\Objects\test (?C_STARTUP)

  VALUE           TYPE          NAME
  ----------------------------------

  -------         MODULE        ?C_STARTUP
  C:0424H         SEGMENT       ?C_C51STARTUP
  I:003DH         SEGMENT       ?STACK
  C:0000H         PUBLIC        ?C_STARTUP
  D:00E0H         SYMBOL        ACC
  D:00F0H         SYMBOL        B
  D:0083H         SYMBOL        DPH
  D:0082H         SYMBOL        DPL
  N:0000H         SYMBOL        IBPSTACK
  N:0100H         SYMBOL        IBPSTACKTOP
BL51 BANKED LINKER/LOCATER V6.22.2.0                                                  09/29/2020  12:48:49  PAGE 3


  N:0080H         SYMBOL        IDATALEN
  C:0427H         SYMBOL        IDATALOOP
  N:0000H         SYMBOL        PBPSTACK
  N:0100H         SYMBOL        PBPSTACKTOP
  N:0000H         SYMBOL        PDATALEN
  N:0000H         SYMBOL        PDATASTART
  N:0000H         SYMBOL        PPAGE
  N:0000H         SYMBOL        PPAGEENABLE
  D:00A0H         SYMBOL        PPAGE_SFR
  D:0081H         SYMBOL        SP
  C:0424H         SYMBOL        STARTUP1
  N:0000H         SYMBOL        XBPSTACK
  N:0000H         SYMBOL        XBPSTACKTOP
  N:0000H         SYMBOL        XDATALEN
  N:0000H         SYMBOL        XDATASTART
  C:0000H         LINE#         126
  C:0424H         LINE#         133
  C:0426H         LINE#         134
  C:0427H         LINE#         135
  C:0428H         LINE#         136
  C:042AH         LINE#         185
  C:042DH         LINE#         196
  -------         ENDMOD        ?C_STARTUP

  -------         MODULE        TEST1
  C:0000H         SYMBOL        _ICE_DUMMY_
  D:0090H         PUBLIC        P1
  B:0020H.0       PUBLIC        temp_will_set
  D:00A0H         PUBLIC        P2
  B:0020H.1       PUBLIC        mins_will_set
  D:00B0H         PUBLIC        P3
  B:00A8H.7       PUBLIC        EA
  C:0534H         PUBLIC        controlState
  D:0008H         PUBLIC        number
  D:00A8H         PUBLIC        IE
  D:0013H         PUBLIC        speed
  B:00B0H.2       PUBLIC        speed_button
  B:00A0H.3       PUBLIC        display_clk
  B:00A8H.4       PUBLIC        ES
  D:00B8H         PUBLIC        IP
  C:0026H         PUBLIC        serialInit
  B:0098H.0       PUBLIC        RI
  B:0098H.1       PUBLIC        TI
  B:00A0H.0       PUBLIC        motor_in1
  B:00A0H.1       PUBLIC        motor_in2
  D:0014H         PUBLIC        state
  D:0015H         PUBLIC        times
  B:00B0H.7       PUBLIC        timer_button
  B:00B0H.3       PUBLIC        state_button
  C:011BH         PUBLIC        main
  D:0017H         PUBLIC        secs
  D:0099H         PUBLIC        SBUF
  D:0087H         PUBLIC        PCON
  C:0611H         PUBLIC        setSerial
  D:0098H         PUBLIC        SCON
  D:0089H         PUBLIC        TMOD
  D:0088H         PUBLIC        TCON
BL51 BANKED LINKER/LOCATER V6.22.2.0                                                  09/29/2020  12:48:49  PAGE 4


  B:0020H.2       PUBLIC        start_timer
  D:0019H         PUBLIC        temp
  D:001BH         PUBLIC        mins
  B:00A8H.1       PUBLIC        ET0
  D:008CH         PUBLIC        TH0
  B:00A8H.0       PUBLIC        EX0
  B:0088H.0       PUBLIC        IT0
  D:008DH         PUBLIC        TH1
  B:00A8H.2       PUBLIC        EX1
  B:0088H.2       PUBLIC        IT1
  D:008AH         PUBLIC        TL0
  D:008BH         PUBLIC        TL1
  C:062CH         PUBLIC        setTimer
  C:01F2H         PUBLIC        timer0
  B:0088H.4       PUBLIC        TR0
  B:0088H.6       PUBLIC        TR1
  C:059DH         PUBLIC        _runOnce
  C:02BDH         PUBLIC        updateDisplay
  C:0016H         PUBLIC        setInit
  D:001DH         PUBLIC        temp_set
  D:00C8H         PUBLIC        T2CON
  C:063FH         PUBLIC        runStart
  B:00A0H.2       PUBLIC        display_data
  B:0020H.3       PUBLIC        secs_will_set
  C:04B0H         PUBLIC        controlSpeed
  D:00D0H         PUBLIC        PSW
  -------         PROC          MAIN
  -------         DO            
  D:0021H         SYMBOL        start_flag
  D:0023H         SYMBOL        update_flag
  -------         DO            
  D:0025H         SYMBOL        i
  -------         ENDDO         
  -------         ENDDO         
  C:011BH         LINE#         29
  C:011BH         LINE#         30
  C:0120H         LINE#         31
  C:0124H         LINE#         32
  C:0127H         LINE#         33
  C:012AH         LINE#         34
  C:012DH         LINE#         35
  C:0130H         LINE#         36
  C:0152H         LINE#         37
  C:0152H         LINE#         38
  C:0166H         LINE#         39
  C:0175H         LINE#         40
  C:0178H         LINE#         41
  C:0178H         LINE#         42
  C:017BH         LINE#         43
  C:017BH         LINE#         44
  C:017DH         LINE#         45
  C:017FH         LINE#         46
  C:017FH         LINE#         47
  C:0185H         LINE#         48
  C:0188H         LINE#         49
  C:018EH         LINE#         50
  C:019BH         LINE#         51
BL51 BANKED LINKER/LOCATER V6.22.2.0                                                  09/29/2020  12:48:49  PAGE 5


  C:019EH         LINE#         52
  C:019EH         LINE#         53
  C:01C0H         LINE#         54
  C:01C2H         LINE#         55
  C:01C5H         LINE#         56
  C:01C8H         LINE#         57
  C:01CAH         LINE#         58
  C:01CAH         LINE#         59
  C:01CAH         LINE#         60
  C:01D0H         LINE#         61
  C:01D3H         LINE#         62
  C:01DBH         LINE#         63
  C:01DEH         LINE#         64
  C:01DEH         LINE#         65
  C:01E3H         LINE#         66
  C:01E3H         LINE#         67
  C:01E6H         LINE#         68
  C:01E6H         LINE#         69
  C:01EBH         LINE#         70
  C:01EDH         LINE#         71
  C:01EFH         LINE#         72
  C:01EFH         LINE#         73
  -------         ENDPROC       MAIN
  -------         PROC          CONTROLSPEED
  -------         DO            
  D:0006H         SYMBOL        i
  D:002BH         SYMBOL        transferedData
  -------         ENDDO         
  C:04B0H         LINE#         75
  C:04CDH         LINE#         76
  C:04D1H         LINE#         78
  C:04DBH         LINE#         79
  C:04DEH         LINE#         80
  C:04E4H         LINE#         81
  C:04F5H         LINE#         82
  C:04F8H         LINE#         83
  C:0504H         LINE#         84
  C:0509H         LINE#         85
  C:050EH         LINE#         86
  C:0511H         LINE#         87
  C:0511H         LINE#         88
  C:0514H         LINE#         89
  C:0517H         LINE#         90
  C:0519H         LINE#         91
  C:0519H         LINE#         92
  -------         ENDPROC       CONTROLSPEED
  -------         PROC          CONTROLSTATE
  -------         DO            
  D:0006H         SYMBOL        i
  D:0030H         SYMBOL        transferedData
  -------         ENDDO         
  C:0534H         LINE#         93
  C:0551H         LINE#         94
  C:0555H         LINE#         96
  C:055FH         LINE#         97
  C:0562H         LINE#         98
  C:0568H         LINE#         99
BL51 BANKED LINKER/LOCATER V6.22.2.0                                                  09/29/2020  12:48:49  PAGE 6


  C:056BH         LINE#         100
  C:0572H         LINE#         101
  C:0577H         LINE#         102
  C:057AH         LINE#         103
  C:057AH         LINE#         104
  C:057DH         LINE#         105
  C:0580H         LINE#         106
  C:0582H         LINE#         107
  -------         ENDPROC       CONTROLSTATE
  -------         PROC          TIMER0
  C:01F2H         LINE#         108
  C:020FH         LINE#         109
  C:0217H         LINE#         110
  C:0226H         LINE#         111
  C:0235H         LINE#         112
  C:0250H         LINE#         113
  C:0266H         LINE#         114
  C:0269H         LINE#         115
  C:026BH         LINE#         116
  C:026BH         LINE#         117
  C:0276H         LINE#         118
  C:0279H         LINE#         119
  C:027BH         LINE#         120
  C:027BH         LINE#         121
  C:027EH         LINE#         122
  C:027EH         LINE#         123
  C:027EH         LINE#         124
  C:0281H         LINE#         126
  C:0281H         LINE#         127
  C:0287H         LINE#         128
  C:0289H         LINE#         129
  C:028CH         LINE#         130
  C:028EH         LINE#         131
  C:0290H         LINE#         132
  C:0293H         LINE#         133
  C:0296H         LINE#         134
  C:029AH         LINE#         136
  C:029AH         LINE#         137
  C:029DH         LINE#         138
  C:02A0H         LINE#         139
  C:02A2H         LINE#         140
  -------         ENDPROC       TIMER0
  -------         PROC          SETINIT
  C:0016H         LINE#         141
  C:0016H         LINE#         142
  C:0018H         LINE#         143
  C:001AH         LINE#         144
  C:001CH         LINE#         145
  C:001EH         LINE#         146
  C:0020H         LINE#         147
  -------         ENDPROC       SETINIT
  -------         PROC          SETTIMER
  C:062CH         LINE#         148
  C:062CH         LINE#         149
  C:0634H         LINE#         150
  C:0637H         LINE#         151
  C:063AH         LINE#         152
BL51 BANKED LINKER/LOCATER V6.22.2.0                                                  09/29/2020  12:48:49  PAGE 7


  C:063CH         LINE#         153
  C:063EH         LINE#         154
  -------         ENDPROC       SETTIMER
  -------         PROC          _RUNONCE
  D:0007H         SYMBOL        speed
  -------         DO            
  D:0004H         SYMBOL        num1
  D:0002H         SYMBOL        num2
  -------         ENDDO         
  C:059DH         LINE#         155
  C:059DH         LINE#         156
  C:05A0H         LINE#         157
  C:05A0H         LINE#         158
  C:05ABH         LINE#         159
  C:05ABH         LINE#         160
  C:05B1H         LINE#         161
  C:05B1H         LINE#         162
  C:05B7H         LINE#         163
  C:05B7H         LINE#         164
  C:05BBH         LINE#         165
  C:05BBH         LINE#         166
  C:05C4H         LINE#         167
  C:05C6H         LINE#         168
  C:05C8H         LINE#         169
  C:05D2H         LINE#         170
  C:05D4H         LINE#         171
  C:05D6H         LINE#         172
  C:05E0H         LINE#         173
  -------         ENDPROC       _RUNONCE
  -------         PROC          RUNSTART
  -------         DO            
  D:0006H         SYMBOL        num
  -------         ENDDO         
  C:063FH         LINE#         174
  C:063FH         LINE#         175
  C:0643H         LINE#         176
  C:0645H         LINE#         177
  C:0647H         LINE#         178
  C:0651H         LINE#         179
  -------         ENDPROC       RUNSTART
  -------         PROC          SETSERIAL
  C:0611H         LINE#         180
  C:0611H         LINE#         181
  C:0614H         LINE#         182
  C:061CH         LINE#         183
  C:061FH         LINE#         184
  C:0622H         LINE#         185
  C:0625H         LINE#         186
  C:0627H         LINE#         187
  C:0629H         LINE#         188
  C:062BH         LINE#         189
  -------         ENDPROC       SETSERIAL
  -------         PROC          SERIALINIT
  -------         DO            
  D:0001H         SYMBOL        receivedData
  -------         ENDDO         
  C:0026H         LINE#         190
BL51 BANKED LINKER/LOCATER V6.22.2.0                                                  09/29/2020  12:48:49  PAGE 8


  C:0043H         LINE#         192
  C:0045H         LINE#         193
  C:0047H         LINE#         194
  C:004AH         LINE#         195
  C:0054H         LINE#         196
  C:0056H         LINE#         197
  C:0059H         LINE#         198
  C:0059H         LINE#         199
  C:005CH         LINE#         200
  C:0066H         LINE#         201
  C:0068H         LINE#         202
  C:006BH         LINE#         203
  C:006BH         LINE#         204
  C:006EH         LINE#         205
  C:0078H         LINE#         206
  C:007AH         LINE#         207
  C:007CH         LINE#         208
  C:007CH         LINE#         209
  C:00ADH         LINE#         210
  C:00B2H         LINE#         211
  C:00B7H         LINE#         212
  C:00BCH         LINE#         213
  C:00C1H         LINE#         214
  C:00C6H         LINE#         215
  C:00CAH         LINE#         216
  C:00CEH         LINE#         217
  C:00F4H         LINE#         218
  C:00F6H         LINE#         219
  C:00F6H         LINE#         220
  C:00F6H         LINE#         221
  C:00F6H         LINE#         222
  C:00F6H         LINE#         223
  C:00F8H         LINE#         224
  C:00FBH         LINE#         225
  C:00FDH         LINE#         226
  C:0100H         LINE#         227
  -------         ENDPROC       SERIALINIT
  -------         PROC          UPDATEDISPLAY
  -------         DO            
  D:0039H         SYMBOL        i
  D:0002H         SYMBOL        j
  D:003BH         SYMBOL        num
  D:0001H         SYMBOL        display_number
  -------         ENDDO         
  C:02BDH         LINE#         228
  C:02BDH         LINE#         229
  C:02BEH         LINE#         230
  C:02C3H         LINE#         231
  C:02C3H         LINE#         232
  C:02C5H         LINE#         233
  C:02C7H         LINE#         235
  C:02CBH         LINE#         236
  C:02E4H         LINE#         237
  C:02EAH         LINE#         238
  C:02F0H         LINE#         239
  C:0300H         LINE#         240
  C:0310H         LINE#         241
BL51 BANKED LINKER/LOCATER V6.22.2.0                                                  09/29/2020  12:48:49  PAGE 9


  C:0320H         LINE#         242
  C:0333H         LINE#         243
  C:0335H         LINE#         244
  C:0335H         LINE#         245
  C:0338H         LINE#         246
  C:0338H         LINE#         247
  C:033AH         LINE#         248
  C:0355H         LINE#         249
  C:035BH         LINE#         250
  C:0368H         LINE#         251
  C:036AH         LINE#         252
  C:0375H         LINE#         253
  C:0386H         LINE#         254
  -------         ENDPROC       UPDATEDISPLAY
  -------         ENDMOD        TEST1

  -------         MODULE        ?C?IMUL
  C:0387H         PUBLIC        ?C?IMUL
  -------         ENDMOD        ?C?IMUL

  -------         MODULE        ?C?UIDIV
  C:0399H         PUBLIC        ?C?UIDIV
  -------         ENDMOD        ?C?UIDIV

  -------         MODULE        ?C?SIDIV
  C:03EEH         PUBLIC        ?C?SIDIV
  -------         ENDMOD        ?C?SIDIV

*** WARNING L15: MULTIPLE CALL TO SEGMENT
    SEGMENT: ?PR?UPDATEDISPLAY?TEST1
    CALLER1: ?C_C51STARTUP
    CALLER2: ?PR?CONTROLSPEED?TEST1

*** WARNING L15: MULTIPLE CALL TO SEGMENT
    SEGMENT: ?PR?UPDATEDISPLAY?TEST1
    CALLER1: ?PR?CONTROLSPEED?TEST1
    CALLER2: ?PR?CONTROLSTATE?TEST1

*** WARNING L15: MULTIPLE CALL TO SEGMENT
    SEGMENT: ?PR?UPDATEDISPLAY?TEST1
    CALLER1: ?PR?CONTROLSTATE?TEST1
    CALLER2: ?PR?TIMER0?TEST1

*** WARNING L15: MULTIPLE CALL TO SEGMENT
    SEGMENT: ?PR?UPDATEDISPLAY?TEST1
    CALLER1: ?PR?TIMER0?TEST1
    CALLER2: ?PR?SERIALINIT?TEST1

Program Size: data=60.4 xdata=0 code=1606
LINK/LOCATE RUN COMPLETE.  4 WARNING(S),  0 ERROR(S)
